; Function Attrs: mustprogress uwtable
define hidden void @_ZN2cv13wechat_qrcode5Align14calcWarpMatrixENS_3MatES2_(ptr dead_on_unwind noalias writable sret(%"class.cv::Mat") align 8 %0, ptr noundef nonnull align 8 dereferenceable(201) %1, ptr noundef %2, ptr noundef %3) local_unnamed_addr #2 align 2 personality ptr @__gxx_personality_v0 {
  %5 = alloca %"class.cv::Mat", align 8
  %6 = alloca %"class.cv::_InputArray", align 8
  %7 = alloca %"class.cv::_InputArray", align 8
  %8 = alloca %"class.cv::MatExpr", align 8
  %9 = getelementptr inbounds i8, ptr %6, i64 16
  store i32 0, ptr %9, align 8
  %10 = getelementptr inbounds i8, ptr %6, i64 20
  store i32 0, ptr %10, align 4
  store i32 16842752, ptr %6, align 8
  %11 = getelementptr inbounds i8, ptr %6, i64 8
  store ptr %2, ptr %11, align 8
  %12 = getelementptr inbounds i8, ptr %7, i64 16
  store i32 0, ptr %12, align 8
  %13 = getelementptr inbounds i8, ptr %7, i64 20
  store i32 0, ptr %13, align 4
  store i32 16842752, ptr %7, align 8
  %14 = getelementptr inbounds i8, ptr %7, i64 8
  store ptr %3, ptr %14, align 8
  call void @_ZN2cv23getPerspectiveTransformERKNS_11_InputArrayES2_i(ptr dead_on_unwind nonnull writable sret(%"class.cv::Mat") align 8 %5, ptr noundef nonnull align 8 dereferenceable(24) %6, ptr noundef nonnull align 8 dereferenceable(24) %7, i32 noundef 0)
  %15 = invoke noundef nonnull align 8 dereferenceable(96) ptr @_ZN2cv3MataSEOS0_(ptr noundef nonnull align 8 dereferenceable(96) %1, ptr noundef nonnull align 8 dereferenceable(96) %5)
          to label %16 unwind label %25

16:                                               ; preds = %4
  call void @_ZN2cv3MatD1Ev(ptr noundef nonnull align 8 dereferenceable(96) %5) #10
  call void @_ZNK2cv3Mat3invEi(ptr dead_on_unwind nonnull writable sret(%"class.cv::MatExpr") align 8 %8, ptr noundef nonnull align 8 dereferenceable(96) %1, i32 noundef 0)
  %17 = getelementptr inbounds i8, ptr %1, i64 96
  %18 = load ptr, ptr %8, align 8
  %19 = load ptr, ptr %18, align 8
  %20 = getelementptr inbounds i8, ptr %19, i64 24
  %21 = load ptr, ptr %20, align 8
  invoke void %21(ptr noundef nonnull align 8 dereferenceable(8) %18, ptr noundef nonnull align 8 dereferenceable(352) %8, ptr noundef nonnull align 8 dereferenceable(96) %17, i32 noundef -1)
          to label %_ZN2cv3MataSERKNS_7MatExprE.exit unwind label %27

_ZN2cv3MataSERKNS_7MatExprE.exit:                 ; preds = %16
  %22 = getelementptr inbounds i8, ptr %8, i64 208
  call void @_ZN2cv3MatD1Ev(ptr noundef nonnull align 8 dereferenceable(96) %22) #10
  %23 = getelementptr inbounds i8, ptr %8, i64 112
  call void @_ZN2cv3MatD1Ev(ptr noundef nonnull align 8 dereferenceable(96) %23) #10
  %24 = getelementptr inbounds i8, ptr %8, i64 16
  call void @_ZN2cv3MatD1Ev(ptr noundef nonnull align 8 dereferenceable(96) %24) #10
  call void @_ZN2cv3MatC1ERKS0_(ptr noundef nonnull align 8 dereferenceable(96) %0, ptr noundef nonnull align 8 dereferenceable(96) %1)
  ret void

25:                                               ; preds = %4
  %26 = landingpad { ptr, i32 }
          cleanup
  call void @_ZN2cv3MatD1Ev(ptr noundef nonnull align 8 dereferenceable(96) %5) #10
  br label %29

27:                                               ; preds = %16
  %28 = landingpad { ptr, i32 }
          cleanup
  call void @_ZN2cv7MatExprD2Ev(ptr noundef nonnull align 8 dereferenceable(352) %8) #10
  br label %29

29:                                               ; preds = %25, %27
  %.pn7 = phi { ptr, i32 } [ %28, %27 ], [ %26, %25 ]
  resume { ptr, i32 } %.pn7
}